; Function Attrs: nounwind uwtable
define internal fastcc void @qtest_reset_time() unnamed_addr #0 {
  %1 = load ptr, ptr @fake_now_lock, align 8, !tbaa !42
  %2 = tail call i32 @CRYPTO_THREAD_write_lock(ptr noundef %1) #10
  %.not = icmp eq i32 %2, 0
  br i1 %.not, label %qtest_add_time.exit, label %3

3:                                                ; preds = %0
  store i64 0, ptr @fake_now.0, align 8, !tbaa !46
  %4 = load ptr, ptr @fake_now_lock, align 8, !tbaa !42
  %5 = tail call i32 @CRYPTO_THREAD_unlock(ptr noundef %4) #10
  %6 = load ptr, ptr @fake_now_lock, align 8, !tbaa !42
  %7 = tail call i32 @CRYPTO_THREAD_write_lock(ptr noundef %6) #10
  %.not.i = icmp eq i32 %7, 0
  br i1 %.not.i, label %qtest_add_time.exit, label %8

8:                                                ; preds = %3
  %9 = load i64, ptr @fake_now.0, align 8
  %.sroa.03.0.i.i = tail call i64 @llvm.uadd.sat.i64(i64 %9, i64 1000000)
  store i64 %.sroa.03.0.i.i, ptr @fake_now.0, align 8, !tbaa !46
  %10 = load ptr, ptr @fake_now_lock, align 8, !tbaa !42
  %11 = tail call i32 @CRYPTO_THREAD_unlock(ptr noundef %10) #10
  br label %qtest_add_time.exit

qtest_add_time.exit:                              ; preds = %8, %3, %0
  ret void
}